; Function Attrs: mustprogress uwtable
define internal void @_ZN12_GLOBAL__N_114SynthNexusPass11clear_flagsEv(ptr noundef nonnull align 8 dereferenceable(352) %0) unnamed_addr #4 align 2 {
  %2 = getelementptr inbounds i8, ptr %0, i64 184
  %3 = tail call noundef nonnull align 8 dereferenceable(32) ptr @_ZNSt7__cxx1112basic_stringIcSt11char_traitsIcESaIcEEaSEPKc(ptr noundef nonnull align 8 dereferenceable(32) %2, ptr noundef nonnull @.str.53)
  %4 = getelementptr inbounds i8, ptr %0, i64 280
  %5 = tail call noundef nonnull align 8 dereferenceable(32) ptr @_ZNSt7__cxx1112basic_stringIcSt11char_traitsIcESaIcEEaSEPKc(ptr noundef nonnull align 8 dereferenceable(32) %4, ptr noundef nonnull @.str.54)
  %6 = getelementptr inbounds i8, ptr %0, i64 216
  %7 = tail call noundef nonnull align 8 dereferenceable(32) ptr @_ZNSt7__cxx1112basic_stringIcSt11char_traitsIcESaIcEEaSEPKc(ptr noundef nonnull align 8 dereferenceable(32) %6, ptr noundef nonnull @.str.55)
  %8 = getelementptr inbounds i8, ptr %0, i64 248
  %9 = tail call noundef nonnull align 8 dereferenceable(32) ptr @_ZNSt7__cxx1112basic_stringIcSt11char_traitsIcESaIcEEaSEPKc(ptr noundef nonnull align 8 dereferenceable(32) %8, ptr noundef nonnull @.str.55)
  %10 = getelementptr inbounds i8, ptr %0, i64 312
  %11 = getelementptr inbounds i8, ptr %0, i64 320
  store i64 0, ptr %10, align 8
  store i8 1, ptr %11, align 8
  %12 = getelementptr inbounds i8, ptr %0, i64 321
  store i8 0, ptr %12, align 1
  %13 = getelementptr inbounds i8, ptr %0, i64 322
  store i8 0, ptr %13, align 2
  ret void
}